
virt_guest/obj/guest:     file format elf64-littleaarch64


Disassembly of section .start.text:

0000000000000000 <text_>:
   0:	d2900000 	mov	x0, #0x8000                	// #32768
   4:	d2800821 	mov	x1, #0x41                  	// #65
   8:	39000001 	strb	w1, [x0]
   c:	d2800841 	mov	x1, #0x42                  	// #66
  10:	39000001 	strb	w1, [x0]
  14:	d2800861 	mov	x1, #0x43                  	// #67
  18:	39000001 	strb	w1, [x0]
  1c:	d2800141 	mov	x1, #0xa                   	// #10
  20:	39000001 	strb	w1, [x0]
  24:	580000e0 	ldr	x0, 40 <text_+0x40>
  28:	9100001f 	mov	sp, x0
  2c:	9400001f 	bl	a8 <main>
  30:	580000c1 	ldr	x1, 48 <text_+0x48>
  34:	d2800020 	mov	x0, #0x1                   	// #1
  38:	39000020 	strb	w0, [x1]
  3c:	00000000 	.word	0x00000000
  40:	00101000 	.word	0x00101000
  44:	00000000 	.word	0x00000000
  48:	00010000 	.word	0x00010000
  4c:	00000000 	.word	0x00000000

Disassembly of section .text:

0000000000000050 <print>:
  50:	d10043ff 	sub	sp, sp, #0x10
  54:	f90007e0 	str	x0, [sp,#8]
  58:	14000007 	b	74 <print+0x24>
  5c:	d2900001 	mov	x1, #0x8000                	// #32768
  60:	f94007e0 	ldr	x0, [sp,#8]
  64:	91000402 	add	x2, x0, #0x1
  68:	f90007e2 	str	x2, [sp,#8]
  6c:	39400000 	ldrb	w0, [x0]
  70:	39000020 	strb	w0, [x1]
  74:	f94007e0 	ldr	x0, [sp,#8]
  78:	f100001f 	cmp	x0, #0x0
  7c:	540000a0 	b.eq	90 <print+0x40>
  80:	f94007e0 	ldr	x0, [sp,#8]
  84:	39400000 	ldrb	w0, [x0]
  88:	7100001f 	cmp	w0, #0x0
  8c:	54fffe81 	b.ne	5c <print+0xc>
  90:	d503201f 	nop
  94:	910043ff 	add	sp, sp, #0x10
  98:	d65f03c0 	ret

000000000000009c <getchar>:
  9c:	d2900080 	mov	x0, #0x8004                	// #32772
  a0:	39400000 	ldrb	w0, [x0]
  a4:	d65f03c0 	ret

00000000000000a8 <main>:
  a8:	a9bd7bfd 	stp	x29, x30, [sp,#-48]!
  ac:	910003fd 	mov	x29, sp
  b0:	d5384240 	mrs	x0, currentel
  b4:	f90017a0 	str	x0, [x29,#40]
  b8:	f94017a0 	ldr	x0, [x29,#40]
  bc:	53001c00 	uxtb	w0, w0
  c0:	39007fa0 	strb	w0, [x29,#31]
  c4:	90000000 	adrp	x0, 0 <text_>
  c8:	91046000 	add	x0, x0, #0x118
  cc:	97ffffe1 	bl	50 <print>
  d0:	91007fa0 	add	x0, x29, #0x1f
  d4:	97ffffdf 	bl	50 <print>
  d8:	90000000 	adrp	x0, 0 <text_>
  dc:	9104a000 	add	x0, x0, #0x128
  e0:	97ffffdc 	bl	50 <print>
  e4:	97ffffee 	bl	9c <getchar>
  e8:	53001c00 	uxtb	w0, w0
  ec:	390083a0 	strb	w0, [x29,#32]
  f0:	52800140 	mov	w0, #0xa                   	// #10
  f4:	390087a0 	strb	w0, [x29,#33]
  f8:	90000000 	adrp	x0, 0 <text_>
  fc:	9104e000 	add	x0, x0, #0x138
 100:	97ffffd4 	bl	50 <print>
 104:	910083a0 	add	x0, x29, #0x20
 108:	97ffffd2 	bl	50 <print>
 10c:	52800000 	mov	w0, #0x0                   	// #0
 110:	a8c37bfd 	ldp	x29, x30, [sp],#48
 114:	d65f03c0 	ret
